; Function Attrs: mustprogress uwtable
define void @_ZN3gmx17EnumOptionStorage13initConverterEPNS_26OptionValueConverterSimpleIiEE(ptr noundef nonnull align 8 dereferenceable(240) %0, ptr noundef nonnull %1) unnamed_addr #2 align 2 personality ptr @__gxx_personality_v0 {
  %3 = alloca %"class.std::function.22", align 8
  %4 = ptrtoint ptr %0 to i64
  %5 = getelementptr inbounds nuw i8, ptr %3, i64 16
  %6 = getelementptr inbounds nuw i8, ptr %3, i64 24
  %7 = getelementptr inbounds nuw i8, ptr %3, i64 8
  store i64 0, ptr %7, align 8
  store i64 %4, ptr %3, align 8, !tbaa !310
  store ptr @"_ZNSt17_Function_handlerIFiRKNSt7__cxx1112basic_stringIcSt11char_traitsIcESaIcEEEEZN3gmx17EnumOptionStorage13initConverterEPNS9_26OptionValueConverterSimpleIiEEE3$_0E9_M_invokeERKSt9_Any_dataS7_", ptr %6, align 8, !tbaa !76
  store ptr @"_ZNSt17_Function_handlerIFiRKNSt7__cxx1112basic_stringIcSt11char_traitsIcESaIcEEEEZN3gmx17EnumOptionStorage13initConverterEPNS9_26OptionValueConverterSimpleIiEEE3$_0E10_M_managerERSt9_Any_dataRKSG_St18_Manager_operation", ptr %5, align 8, !tbaa !21
  invoke void @_ZN3gmx26OptionValueConverterSimpleIiE12addConverterINSt7__cxx1112basic_stringIcSt11char_traitsIcESaIcEEEEEvSt8functionIFiRKT_EE(ptr noundef nonnull align 8 dereferenceable(48) %1, ptr noundef nonnull %3)
          to label %8 unwind label %15

8:                                                ; preds = %2
  %9 = load ptr, ptr %5, align 8, !tbaa !21
  %.not.i = icmp eq ptr %9, null
  br i1 %.not.i, label %_ZNSt14_Function_baseD2Ev.exit, label %10

10:                                               ; preds = %8
  %11 = invoke noundef zeroext i1 %9(ptr noundef nonnull align 8 dereferenceable(32) %3, ptr noundef nonnull align 8 dereferenceable(32) %3, i32 noundef 3)
          to label %_ZNSt14_Function_baseD2Ev.exit unwind label %12

12:                                               ; preds = %10
  %13 = landingpad { ptr, i32 }
          catch ptr null
  %14 = extractvalue { ptr, i32 } %13, 0
  call void @__clang_call_terminate(ptr %14) #27
  unreachable

_ZNSt14_Function_baseD2Ev.exit:                   ; preds = %8, %10
  ret void

15:                                               ; preds = %2
  %16 = landingpad { ptr, i32 }
          cleanup
  %17 = load ptr, ptr %5, align 8, !tbaa !21
  %.not.i3 = icmp eq ptr %17, null
  br i1 %.not.i3, label %_ZNSt14_Function_baseD2Ev.exit4, label %18

18:                                               ; preds = %15
  %19 = invoke noundef zeroext i1 %17(ptr noundef nonnull align 8 dereferenceable(32) %3, ptr noundef nonnull align 8 dereferenceable(32) %3, i32 noundef 3)
          to label %_ZNSt14_Function_baseD2Ev.exit4 unwind label %20

20:                                               ; preds = %18
  %21 = landingpad { ptr, i32 }
          catch ptr null
  %22 = extractvalue { ptr, i32 } %21, 0
  call void @__clang_call_terminate(ptr %22) #27
  unreachable

_ZNSt14_Function_baseD2Ev.exit4:                  ; preds = %15, %18
  resume { ptr, i32 } %16
}